target datalayout = "e-m:e-p270:32:32-p271:32:32-p272:64:64-i64:64-i128:128-f80:128-n8:16:32:64-S128"
target triple = "x86_64-unknown-linux-gnu"

%struct.MigrationIncomingState = type { ptr, [2 x ptr], ptr, ptr, %struct.QemuSemaphore, %struct.QemuEvent, %struct.AnnounceTimer, i64, i8, %struct.QemuThread, i8, i8, %struct.QemuThread, i32, i32, ptr, %struct.QemuMutex, ptr, i32, ptr, %struct.QemuSemaphore, %struct.QemuThread, i32, %struct.QemuMutex, ptr, ptr, ptr, ptr, i32, ptr, ptr, %struct.QemuSemaphore, ptr, %struct.QemuSemaphore, %struct.QemuSemaphore, %struct.QemuSemaphore, ptr, ptr, i32, %struct.QemuMutex, %struct.QemuCond, i32 }
%struct.QemuEvent = type { i32, i8 }
%struct.AnnounceTimer = type { ptr, %struct.AnnounceParameters, i32, i32 }
%struct.AnnounceParameters = type { i64, i64, i64, i64, i8, ptr, ptr }
%struct.QemuThread = type { i64 }
%struct.QemuSemaphore = type { %struct.QemuMutex, %struct.QemuCond, i32 }
%struct.QemuMutex = type { %union.pthread_mutex_t, i8 }
%union.pthread_mutex_t = type { %struct.__pthread_mutex_s }
%struct.__pthread_mutex_s = type { i32, i32, i32, i32, i32, i16, i16, %struct.__pthread_internal_list }
%struct.__pthread_internal_list = type { ptr, ptr }
%struct.QemuCond = type { %union.pthread_cond_t, i8 }
%union.pthread_cond_t = type { %struct.__pthread_cond_s }
%struct.__pthread_cond_s = type { %union.__atomic_wide_counter, %union.__atomic_wide_counter, [2 x i32], [2 x i32], i32, i32, [2 x i32] }
%union.__atomic_wide_counter = type { i64 }

; Function Attrs: nounwind sspstrong uwtable
define dso_local void @migration_incoming_transport_cleanup(ptr noundef %mis) #0 {
entry:
  %mis.addr = alloca ptr, align 8
  store ptr %mis, ptr %mis.addr, align 8
  %0 = load ptr, ptr %mis.addr, align 8
  %socket_address_list = getelementptr inbounds %struct.MigrationIncomingState, ptr %0, i32 0, i32 36
  %1 = load ptr, ptr %socket_address_list, align 8
  %tobool = icmp ne ptr %1, null
  br i1 %tobool, label %if.then, label %if.end

if.then:                                          ; preds = %entry
  %2 = load ptr, ptr %mis.addr, align 8
  %socket_address_list1 = getelementptr inbounds %struct.MigrationIncomingState, ptr %2, i32 0, i32 36
  %3 = load ptr, ptr %socket_address_list1, align 8
  call void @qapi_free_SocketAddressList(ptr noundef %3)
  %4 = load ptr, ptr %mis.addr, align 8
  %socket_address_list2 = getelementptr inbounds %struct.MigrationIncomingState, ptr %4, i32 0, i32 36
  store ptr null, ptr %socket_address_list2, align 8
  br label %if.end

if.end:                                           ; preds = %if.then, %entry
  %5 = load ptr, ptr %mis.addr, align 8
  %transport_cleanup = getelementptr inbounds %struct.MigrationIncomingState, ptr %5, i32 0, i32 3
  %6 = load ptr, ptr %transport_cleanup, align 8
  %tobool3 = icmp ne ptr %6, null
  br i1 %tobool3, label %if.then4, label %if.end8

if.then4:                                         ; preds = %if.end
  %7 = load ptr, ptr %mis.addr, align 8
  %transport_cleanup5 = getelementptr inbounds %struct.MigrationIncomingState, ptr %7, i32 0, i32 3
  %8 = load ptr, ptr %transport_cleanup5, align 8
  %9 = load ptr, ptr %mis.addr, align 8
  %transport_data = getelementptr inbounds %struct.MigrationIncomingState, ptr %9, i32 0, i32 2
  %10 = load ptr, ptr %transport_data, align 8
  call void %8(ptr noundef %10)
  %11 = load ptr, ptr %mis.addr, align 8
  %transport_cleanup6 = getelementptr inbounds %struct.MigrationIncomingState, ptr %11, i32 0, i32 3
  store ptr null, ptr %transport_cleanup6, align 8
  %12 = load ptr, ptr %mis.addr, align 8
  %transport_data7 = getelementptr inbounds %struct.MigrationIncomingState, ptr %12, i32 0, i32 2
  store ptr null, ptr %transport_data7, align 8
  br label %if.end8

if.end8:                                          ; preds = %if.then4, %if.end
  ret void
}