; Function Attrs: nounwind sspstrong uwtable
define dso_local void @migration_incoming_transport_cleanup(ptr noundef captures(none) %mis) local_unnamed_addr #0 {
entry:
  %socket_address_list = getelementptr inbounds nuw i8, ptr %mis, i64 1048
  %0 = load ptr, ptr %socket_address_list, align 8
  %tobool.not = icmp eq ptr %0, null
  br i1 %tobool.not, label %if.end, label %if.then

if.then:                                          ; preds = %entry
  tail call void @qapi_free_SocketAddressList(ptr noundef nonnull %0) #19
  store ptr null, ptr %socket_address_list, align 8
  br label %if.end

if.end:                                           ; preds = %if.then, %entry
  %transport_cleanup = getelementptr inbounds nuw i8, ptr %mis, i64 32
  %1 = load ptr, ptr %transport_cleanup, align 8
  %tobool3.not = icmp eq ptr %1, null
  br i1 %tobool3.not, label %if.end8, label %if.then4

if.then4:                                         ; preds = %if.end
  %transport_data = getelementptr inbounds nuw i8, ptr %mis, i64 24
  %2 = load ptr, ptr %transport_data, align 8
  tail call void %1(ptr noundef %2) #19
  tail call void @llvm.memset.p0.i64(ptr noundef nonnull align 8 dereferenceable(16) %transport_data, i8 0, i64 16, i1 false)
  br label %if.end8

if.end8:                                          ; preds = %if.then4, %if.end
  ret void
}